; Function Attrs: mustprogress nofree norecurse nosync nounwind memory(read, argmem: readwrite, inaccessiblemem: none) uwtable
define noundef double @_ZNK6casadi11ForwardDiff7calc_fdEPPdS1_S1_d(ptr nocapture noundef nonnull readonly align 8 dereferenceable(1392) %0, ptr nocapture noundef readonly %1, ptr nocapture noundef readonly %2, ptr nocapture noundef writeonly %3, double noundef %4) unnamed_addr #13 align 2 {
  %6 = getelementptr inbounds i8, ptr %0, i64 1336
  %7 = load i64, ptr %6, align 8
  %8 = icmp sgt i64 %7, 0
  br i1 %8, label %.lr.ph.i, label %_ZN6casadi23casadi_forward_diff_oldIdEET_PPS1_S2_S2_S1_xPKNS_22casadi_finite_diff_memIS1_EE.exit

.lr.ph.i:                                         ; preds = %5, %.lr.ph.i
  %.09.i = phi i64 [ %17, %.lr.ph.i ], [ 0, %5 ]
  %9 = load ptr, ptr %1, align 8
  %10 = getelementptr inbounds double, ptr %9, i64 %.09.i
  %11 = load double, ptr %10, align 8
  %12 = getelementptr inbounds double, ptr %2, i64 %.09.i
  %13 = load double, ptr %12, align 8
  %14 = fsub double %11, %13
  %15 = fdiv double %14, %4
  %16 = getelementptr inbounds double, ptr %3, i64 %.09.i
  store double %15, ptr %16, align 8
  %17 = add nuw nsw i64 %.09.i, 1
  %exitcond.not.i = icmp eq i64 %17, %7
  br i1 %exitcond.not.i, label %_ZN6casadi23casadi_forward_diff_oldIdEET_PPS1_S2_S2_S1_xPKNS_22casadi_finite_diff_memIS1_EE.exit, label %.lr.ph.i, !llvm.loop !38

_ZN6casadi23casadi_forward_diff_oldIdEET_PPS1_S2_S2_S1_xPKNS_22casadi_finite_diff_memIS1_EE.exit: ; preds = %.lr.ph.i, %5
  ret double -1.000000e+00
}